target datalayout = "e-m:e-p270:32:32-p271:32:32-p272:64:64-i64:64-i128:128-f80:128-n8:16:32:64-S128"
target triple = "x86_64-pc-linux-gnu"

%struct.WOLFSSL = type <{ ptr, ptr, ptr, ptr, [48 x i8], [48 x i8], ptr, ptr, ptr, ptr, ptr, ptr, ptr, ptr, ptr, ptr, ptr, ptr, ptr, i32, [4 x i8], %struct.WOLFSSL_CIPHER, ptr, %struct.Ciphers, %struct.Ciphers, [8 x i8], %struct.Buffers, ptr, ptr, %struct.WOLFSSL_ALERT_HISTORY, %struct.WOLFSSL_ALERT, i32, i32, i32, i32, i32, i32, i32, i16, [2 x i8], i32, i8, %struct.RecordLayerHeader, %struct.MsgsReceived, %struct.ProtocolVersion, %struct.ProtocolVersion, %struct.CipherSpecs, [2 x i8], %struct.Keys, %struct.Options, ptr, i8, i8, i16, [10 x i16], i8, i8, i16, i16, [38 x i8], i32, i32, [4 x i8], ptr, i8, i8, [6 x i8], ptr, ptr, i16, i8, i8, i32, i8, [3 x i8], i32, %struct.OneTimeAuth, ptr }>
%struct.WOLFSSL_CIPHER = type { i8, i8, ptr }
%struct.Ciphers = type { ptr, ptr, ptr, ptr, i8, i8 }
%struct.Buffers = type { %struct.bufferStatic, %struct.bufferStatic, %struct.WOLFSSL_BUFFER_INFO, %struct.WOLFSSL_BUFFER_INFO, %struct.WOLFSSL_BUFFER_INFO, %struct.WOLFSSL_BUFFER_INFO, i32, i32, i8, i8, i8, i8, %struct.WOLFSSL_BUFFER_INFO, %struct.WOLFSSL_BUFFER_INFO, %struct.WOLFSSL_BUFFER_INFO, %struct.WOLFSSL_BUFFER_INFO, ptr, ptr, ptr, i8, i8, i32, i32, ptr, i32, [1 x ptr] }
%struct.bufferStatic = type { [5 x i8], ptr, i32, i32, i32, i8, i8 }
%struct.WOLFSSL_BUFFER_INFO = type { ptr, i32 }
%struct.WOLFSSL_ALERT_HISTORY = type { %struct.WOLFSSL_ALERT, %struct.WOLFSSL_ALERT }
%struct.WOLFSSL_ALERT = type { i32, i32 }
%struct.RecordLayerHeader = type { i8, i8, i8, [2 x i8] }
%struct.MsgsReceived = type { i32 }
%struct.ProtocolVersion = type { i8, i8 }
%struct.CipherSpecs = type { i16, i16, i16, i16, i8, i8, i8, i8, i8, i8, i8, i8 }
%struct.Keys = type { [64 x i8], [64 x i8], [32 x i8], [32 x i8], [16 x i8], [16 x i8], [8 x i8], [12 x i8], [12 x i8], i32, i32, i32, i32, i32, i32, i8, i8, i8, i8 }
%struct.Options = type { i64, i64, i8, i8, i8, i8, i8, i8, i8, i8, i8, i8, i8, i8, i8, i8, i8, i8, i8, i8, i8, i8, i8, i16, i16, i16, i16, i16, i8 }
%struct.OneTimeAuth = type { ptr, i8 }

; Function Attrs: nounwind uwtable
define internal i32 @Poly1305TagOld(ptr noundef %0, ptr noundef %1, i32 noundef %2, ptr noundef %3, ptr noundef %4, i16 noundef zeroext %5, ptr noundef %6) #0 {
  %8 = alloca i32, align 4
  %9 = alloca ptr, align 8
  %10 = alloca ptr, align 8
  %11 = alloca i32, align 4
  %12 = alloca ptr, align 8
  %13 = alloca ptr, align 8
  %14 = alloca i16, align 2
  %15 = alloca ptr, align 8
  %16 = alloca i32, align 4
  %17 = alloca i32, align 4
  %18 = alloca i32, align 4
  %19 = alloca [8 x i8], align 1
  %20 = alloca i32, align 4
  store ptr %0, ptr %9, align 8, !tbaa !3
  store ptr %1, ptr %10, align 8, !tbaa !89
  store i32 %2, ptr %11, align 4, !tbaa !47
  store ptr %3, ptr %12, align 8, !tbaa !89
  store ptr %4, ptr %13, align 8, !tbaa !89
  store i16 %5, ptr %14, align 2, !tbaa !119
  store ptr %6, ptr %15, align 8, !tbaa !89
  call void @llvm.lifetime.start.p0(i64 4, ptr %16) #9
  store i32 0, ptr %16, align 4, !tbaa !47
  call void @llvm.lifetime.start.p0(i64 4, ptr %17) #9
  %21 = load i16, ptr %14, align 2, !tbaa !119
  %22 = zext i16 %21 to i32
  %23 = load ptr, ptr %9, align 8, !tbaa !3
  %24 = getelementptr inbounds nuw %struct.WOLFSSL, ptr %23, i32 0, i32 46
  %25 = getelementptr inbounds nuw %struct.CipherSpecs, ptr %24, i32 0, i32 3
  %26 = load i16, ptr %25, align 2, !tbaa !394
  %27 = zext i16 %26 to i32
  %28 = sub nsw i32 %22, %27
  store i32 %28, ptr %17, align 4, !tbaa !47
  call void @llvm.lifetime.start.p0(i64 4, ptr %18) #9
  store i32 32, ptr %18, align 4, !tbaa !47
  call void @llvm.lifetime.start.p0(i64 8, ptr %19) #9
  %29 = load i32, ptr %17, align 4, !tbaa !47
  %30 = icmp slt i32 %29, 0
  br i1 %30, label %31, label %32

31:                                               ; preds = %7
  store i32 -301, ptr %8, align 4
  store i32 1, ptr %20, align 4
  br label %121

32:                                               ; preds = %7
  %33 = load ptr, ptr %9, align 8, !tbaa !3
  %34 = getelementptr inbounds nuw %struct.WOLFSSL, ptr %33, i32 0, i32 76
  %35 = getelementptr inbounds nuw %struct.OneTimeAuth, ptr %34, i32 0, i32 0
  %36 = load ptr, ptr %35, align 8, !tbaa !101
  %37 = load ptr, ptr %13, align 8, !tbaa !89
  %38 = load i32, ptr %18, align 4, !tbaa !47
  %39 = call i32 @wc_Poly1305SetKey(ptr noundef %36, ptr noundef %37, i32 noundef %38)
  store i32 %39, ptr %16, align 4, !tbaa !47
  %40 = icmp ne i32 %39, 0
  br i1 %40, label %41, label %43

41:                                               ; preds = %32
  %42 = load i32, ptr %16, align 4, !tbaa !47
  store i32 %42, ptr %8, align 4
  store i32 1, ptr %20, align 4
  br label %121

43:                                               ; preds = %32
  %44 = load ptr, ptr %9, align 8, !tbaa !3
  %45 = getelementptr inbounds nuw %struct.WOLFSSL, ptr %44, i32 0, i32 76
  %46 = getelementptr inbounds nuw %struct.OneTimeAuth, ptr %45, i32 0, i32 0
  %47 = load ptr, ptr %46, align 8, !tbaa !101
  %48 = load ptr, ptr %10, align 8, !tbaa !89
  %49 = load i32, ptr %11, align 4, !tbaa !47
  %50 = call i32 @wc_Poly1305Update(ptr noundef %47, ptr noundef %48, i32 noundef %49)
  store i32 %50, ptr %16, align 4, !tbaa !47
  %51 = icmp ne i32 %50, 0
  br i1 %51, label %52, label %54

52:                                               ; preds = %43
  %53 = load i32, ptr %16, align 4, !tbaa !47
  store i32 %53, ptr %8, align 4
  store i32 1, ptr %20, align 4
  br label %121

54:                                               ; preds = %43
  %55 = getelementptr inbounds [8 x i8], ptr %19, i64 0, i64 0
  call void @llvm.memset.p0.i64(ptr align 1 %55, i8 0, i64 8, i1 false)
  %56 = load i32, ptr %11, align 4, !tbaa !47
  %57 = trunc i32 %56 to i8
  %58 = getelementptr inbounds [8 x i8], ptr %19, i64 0, i64 0
  store i8 %57, ptr %58, align 1, !tbaa !54
  %59 = load ptr, ptr %9, align 8, !tbaa !3
  %60 = getelementptr inbounds nuw %struct.WOLFSSL, ptr %59, i32 0, i32 76
  %61 = getelementptr inbounds nuw %struct.OneTimeAuth, ptr %60, i32 0, i32 0
  %62 = load ptr, ptr %61, align 8, !tbaa !101
  %63 = getelementptr inbounds [8 x i8], ptr %19, i64 0, i64 0
  %64 = call i32 @wc_Poly1305Update(ptr noundef %62, ptr noundef %63, i32 noundef 8)
  store i32 %64, ptr %16, align 4, !tbaa !47
  %65 = icmp ne i32 %64, 0
  br i1 %65, label %66, label %68

66:                                               ; preds = %54
  %67 = load i32, ptr %16, align 4, !tbaa !47
  store i32 %67, ptr %8, align 4
  store i32 1, ptr %20, align 4
  br label %121

68:                                               ; preds = %54
  %69 = getelementptr inbounds [8 x i8], ptr %19, i64 0, i64 0
  call void @llvm.memset.p0.i64(ptr align 1 %69, i8 0, i64 8, i1 false)
  %70 = load ptr, ptr %9, align 8, !tbaa !3
  %71 = getelementptr inbounds nuw %struct.WOLFSSL, ptr %70, i32 0, i32 76
  %72 = getelementptr inbounds nuw %struct.OneTimeAuth, ptr %71, i32 0, i32 0
  %73 = load ptr, ptr %72, align 8, !tbaa !101
  %74 = load ptr, ptr %12, align 8, !tbaa !89
  %75 = load i32, ptr %17, align 4, !tbaa !47
  %76 = call i32 @wc_Poly1305Update(ptr noundef %73, ptr noundef %74, i32 noundef %75)
  store i32 %76, ptr %16, align 4, !tbaa !47
  %77 = icmp ne i32 %76, 0
  br i1 %77, label %78, label %80

78:                                               ; preds = %68
  %79 = load i32, ptr %16, align 4, !tbaa !47
  store i32 %79, ptr %8, align 4
  store i32 1, ptr %20, align 4
  br label %121

80:                                               ; preds = %68
  %81 = load i32, ptr %17, align 4, !tbaa !47
  %82 = and i32 %81, 255
  %83 = trunc i32 %82 to i8
  %84 = getelementptr inbounds [8 x i8], ptr %19, i64 0, i64 0
  store i8 %83, ptr %84, align 1, !tbaa !54
  %85 = load i32, ptr %17, align 4, !tbaa !47
  %86 = ashr i32 %85, 8
  %87 = and i32 %86, 255
  %88 = trunc i32 %87 to i8
  %89 = getelementptr inbounds [8 x i8], ptr %19, i64 0, i64 1
  store i8 %88, ptr %89, align 1, !tbaa !54
  %90 = load i32, ptr %17, align 4, !tbaa !47
  %91 = lshr i32 %90, 16
  %92 = and i32 %91, 255
  %93 = trunc i32 %92 to i8
  %94 = getelementptr inbounds [8 x i8], ptr %19, i64 0, i64 2
  store i8 %93, ptr %94, align 1, !tbaa !54
  %95 = load i32, ptr %17, align 4, !tbaa !47
  %96 = lshr i32 %95, 24
  %97 = and i32 %96, 255
  %98 = trunc i32 %97 to i8
  %99 = getelementptr inbounds [8 x i8], ptr %19, i64 0, i64 3
  store i8 %98, ptr %99, align 1, !tbaa !54
  %100 = load ptr, ptr %9, align 8, !tbaa !3
  %101 = getelementptr inbounds nuw %struct.WOLFSSL, ptr %100, i32 0, i32 76
  %102 = getelementptr inbounds nuw %struct.OneTimeAuth, ptr %101, i32 0, i32 0
  %103 = load ptr, ptr %102, align 8, !tbaa !101
  %104 = getelementptr inbounds [8 x i8], ptr %19, i64 0, i64 0
  %105 = call i32 @wc_Poly1305Update(ptr noundef %103, ptr noundef %104, i32 noundef 8)
  store i32 %105, ptr %16, align 4, !tbaa !47
  %106 = icmp ne i32 %105, 0
  br i1 %106, label %107, label %109

107:                                              ; preds = %80
  %108 = load i32, ptr %16, align 4, !tbaa !47
  store i32 %108, ptr %8, align 4
  store i32 1, ptr %20, align 4
  br label %121

109:                                              ; preds = %80
  %110 = load ptr, ptr %9, align 8, !tbaa !3
  %111 = getelementptr inbounds nuw %struct.WOLFSSL, ptr %110, i32 0, i32 76
  %112 = getelementptr inbounds nuw %struct.OneTimeAuth, ptr %111, i32 0, i32 0
  %113 = load ptr, ptr %112, align 8, !tbaa !101
  %114 = load ptr, ptr %15, align 8, !tbaa !89
  %115 = call i32 @wc_Poly1305Final(ptr noundef %113, ptr noundef %114)
  store i32 %115, ptr %16, align 4, !tbaa !47
  %116 = icmp ne i32 %115, 0
  br i1 %116, label %117, label %119

117:                                              ; preds = %109
  %118 = load i32, ptr %16, align 4, !tbaa !47
  store i32 %118, ptr %8, align 4
  store i32 1, ptr %20, align 4
  br label %121

119:                                              ; preds = %109
  %120 = load i32, ptr %16, align 4, !tbaa !47
  store i32 %120, ptr %8, align 4
  store i32 1, ptr %20, align 4
  br label %121

121:                                              ; preds = %119, %117, %107, %78, %66, %52, %41, %31
  call void @llvm.lifetime.end.p0(i64 8, ptr %19) #9
  call void @llvm.lifetime.end.p0(i64 4, ptr %18) #9
  call void @llvm.lifetime.end.p0(i64 4, ptr %17) #9
  call void @llvm.lifetime.end.p0(i64 4, ptr %16) #9
  %122 = load i32, ptr %8, align 4
  ret i32 %122
}