; Function Attrs: nounwind uwtable
define internal fastcc i32 @Poly1305TagOld(ptr noundef readonly captures(none) %0, ptr noundef nonnull %1, ptr noundef %2, ptr noundef nonnull %3, i16 noundef zeroext %4, ptr noundef nonnull %5) unnamed_addr #5 {
  %7 = alloca [8 x i8], align 8
  %8 = zext i16 %4 to i32
  %9 = getelementptr inbounds nuw i8, ptr %0, i64 720
  %10 = load i16, ptr %9, align 2, !tbaa !352
  %11 = zext i16 %10 to i32
  %12 = sub nsw i32 %8, %11
  call void @llvm.lifetime.start.p0(i64 8, ptr nonnull %7) #26
  %13 = icmp slt i32 %12, 0
  br i1 %13, label %39, label %14

14:                                               ; preds = %6
  %15 = getelementptr inbounds nuw i8, ptr %0, i64 1208
  %16 = load ptr, ptr %15, align 8, !tbaa !89
  %17 = tail call i32 @wc_Poly1305SetKey(ptr noundef %16, ptr noundef nonnull %3, i32 noundef 32) #26
  %.not = icmp eq i32 %17, 0
  br i1 %.not, label %18, label %39

18:                                               ; preds = %14
  %19 = load ptr, ptr %15, align 8, !tbaa !89
  %20 = tail call i32 @wc_Poly1305Update(ptr noundef %19, ptr noundef nonnull %1, i32 noundef 13) #26
  %.not35 = icmp eq i32 %20, 0
  br i1 %.not35, label %21, label %39

21:                                               ; preds = %18
  store i64 13, ptr %7, align 8
  %22 = load ptr, ptr %15, align 8, !tbaa !89
  %23 = call i32 @wc_Poly1305Update(ptr noundef %22, ptr noundef nonnull %7, i32 noundef 8) #26
  %.not36 = icmp eq i32 %23, 0
  br i1 %.not36, label %24, label %39

24:                                               ; preds = %21
  store i64 0, ptr %7, align 8
  %25 = load ptr, ptr %15, align 8, !tbaa !89
  %26 = call i32 @wc_Poly1305Update(ptr noundef %25, ptr noundef %2, i32 noundef %12) #26
  %.not37 = icmp eq i32 %26, 0
  br i1 %.not37, label %27, label %39

27:                                               ; preds = %24
  %28 = trunc i32 %12 to i8
  store i8 %28, ptr %7, align 8, !tbaa !45
  %29 = lshr i32 %12, 8
  %30 = trunc i32 %29 to i8
  %31 = getelementptr inbounds nuw i8, ptr %7, i64 1
  store i8 %30, ptr %31, align 1, !tbaa !45
  %32 = getelementptr inbounds nuw i8, ptr %7, i64 2
  store i8 0, ptr %32, align 2, !tbaa !45
  %33 = getelementptr inbounds nuw i8, ptr %7, i64 3
  store i8 0, ptr %33, align 1, !tbaa !45
  %34 = load ptr, ptr %15, align 8, !tbaa !89
  %35 = call i32 @wc_Poly1305Update(ptr noundef %34, ptr noundef nonnull %7, i32 noundef 8) #26
  %.not38 = icmp eq i32 %35, 0
  br i1 %.not38, label %36, label %39

36:                                               ; preds = %27
  %37 = load ptr, ptr %15, align 8, !tbaa !89
  %38 = call i32 @wc_Poly1305Final(ptr noundef %37, ptr noundef nonnull %5) #26
  br label %39

39:                                               ; preds = %36, %27, %24, %21, %18, %14, %6
  %.0 = phi i32 [ -301, %6 ], [ %17, %14 ], [ %20, %18 ], [ %23, %21 ], [ %26, %24 ], [ %35, %27 ], [ %38, %36 ]
  call void @llvm.lifetime.end.p0(i64 8, ptr nonnull %7) #26
  ret i32 %.0
}